target datalayout = "e-m:e-p270:32:32-p271:32:32-p272:64:64-i64:64-i128:128-f80:128-n8:16:32:64-S128"
target triple = "x86_64-pc-linux-gnu"

%"class.std::__cxx11::basic_string" = type { %"struct.std::__cxx11::basic_string<char>::_Alloc_hider", i64, %union.anon.5 }
%"struct.std::__cxx11::basic_string<char>::_Alloc_hider" = type { ptr }
%union.anon.5 = type { i64, [8 x i8] }
%struct.cpu_params = type { i32, [512 x i8], i8, i32, i8, i32 }
%struct.common_params = type <{ i32, i32, i32, i32, i32, i32, i32, i32, i32, i32, i32, float, float, float, float, float, float, i32, float, [4 x i8], %"class.std::vector", i32, i32, [128 x float], i32, %struct.cpu_params, %struct.cpu_params, [4 x i8], ptr, ptr, i32, i32, i32, i32, %struct.common_params_sampling, %struct.common_params_speculative, %struct.common_params_vocoder, %"class.std::__cxx11::basic_string", %"class.std::__cxx11::basic_string", %"class.std::__cxx11::basic_string", %"class.std::__cxx11::basic_string", %"class.std::__cxx11::basic_string", %"class.std::__cxx11::basic_string", %"class.std::__cxx11::basic_string", %"class.std::__cxx11::basic_string", %"class.std::__cxx11::basic_string", %"class.std::__cxx11::basic_string", %"class.std::__cxx11::basic_string", %"class.std::__cxx11::basic_string", %"class.std::__cxx11::basic_string", %"class.std::__cxx11::basic_string", %"class.std::vector.9", %"class.std::vector.9", %"class.std::vector.37", i8, [7 x i8], %"class.std::vector.42", %"class.std::vector.47", i32, i32, i32, i32, i32, i8, [3 x i8], i64, i8, [7 x i8], i64, i8, [7 x i8], i64, i8, i8, i8, i8, i8, i8, i8, i8, i8, i8, i8, i8, i8, i8, i8, i8, i8, i8, i8, i8, i8, i8, i8, i8, i8, i8, [2 x i8], i32, i32, i32, %"class.std::__cxx11::basic_string", %"class.std::vector.9", i8, [3 x i8], i32, %"class.std::__cxx11::basic_string", %"class.std::__cxx11::basic_string", i8, [3 x i8], i32, i32, i32, i32, i32, %"class.std::__cxx11::basic_string", %"class.std::__cxx11::basic_string", %"class.std::__cxx11::basic_string", i8, i8, [2 x i8], i32, %"class.std::vector.9", %"class.std::__cxx11::basic_string", %"class.std::__cxx11::basic_string", i8, i8, i8, i8, i8, [3 x i8], %"class.std::__cxx11::basic_string", float, i8, [3 x i8], %"class.std::vector.24", %"class.std::vector.24", %"class.std::vector.24", %"class.std::vector.9", i32, [4 x i8], %"class.std::__cxx11::basic_string", i32, i32, %"class.std::__cxx11::basic_string", i32, i32, i32, i8, i8, [2 x i8], i32, i32, i32, [4 x i8], %"class.std::__cxx11::basic_string", %"class.std::__cxx11::basic_string", %"class.std::__cxx11::basic_string", i8, [7 x i8], %"class.std::__cxx11::basic_string", i8, [7 x i8] }>
%"class.std::vector" = type { %"struct.std::_Vector_base" }
%"struct.std::_Vector_base" = type { %"struct.std::_Vector_base<ggml_backend_device *, std::allocator<ggml_backend_device *>>::_Vector_impl" }
%"struct.std::_Vector_base<ggml_backend_device *, std::allocator<ggml_backend_device *>>::_Vector_impl" = type { %"struct.std::_Vector_base<ggml_backend_device *, std::allocator<ggml_backend_device *>>::_Vector_impl_data" }
%"struct.std::_Vector_base<ggml_backend_device *, std::allocator<ggml_backend_device *>>::_Vector_impl_data" = type { ptr, ptr, ptr }
%struct.common_params_sampling = type { i32, i32, i32, i32, i32, float, float, float, float, float, float, float, float, i32, float, float, float, float, float, i32, i32, i32, float, float, float, i8, i8, i8, %"class.std::vector.9", %"class.std::vector.14", %"class.std::__cxx11::basic_string", i8, %"class.std::vector.19", %"class.std::vector.24", %"class.std::set", %"class.std::vector.32" }
%"class.std::vector.14" = type { %"struct.std::_Vector_base.15" }
%"struct.std::_Vector_base.15" = type { %"struct.std::_Vector_base<common_sampler_type, std::allocator<common_sampler_type>>::_Vector_impl" }
%"struct.std::_Vector_base<common_sampler_type, std::allocator<common_sampler_type>>::_Vector_impl" = type { %"struct.std::_Vector_base<common_sampler_type, std::allocator<common_sampler_type>>::_Vector_impl_data" }
%"struct.std::_Vector_base<common_sampler_type, std::allocator<common_sampler_type>>::_Vector_impl_data" = type { ptr, ptr, ptr }
%"class.std::vector.19" = type { %"struct.std::_Vector_base.20" }
%"struct.std::_Vector_base.20" = type { %"struct.std::_Vector_base<common_grammar_trigger, std::allocator<common_grammar_trigger>>::_Vector_impl" }
%"struct.std::_Vector_base<common_grammar_trigger, std::allocator<common_grammar_trigger>>::_Vector_impl" = type { %"struct.std::_Vector_base<common_grammar_trigger, std::allocator<common_grammar_trigger>>::_Vector_impl_data" }
%"struct.std::_Vector_base<common_grammar_trigger, std::allocator<common_grammar_trigger>>::_Vector_impl_data" = type { ptr, ptr, ptr }
%"class.std::set" = type { %"class.std::_Rb_tree" }
%"class.std::_Rb_tree" = type { %"struct.std::_Rb_tree<int, int, std::_Identity<int>, std::less<int>>::_Rb_tree_impl" }
%"struct.std::_Rb_tree<int, int, std::_Identity<int>, std::less<int>>::_Rb_tree_impl" = type { [8 x i8], %"struct.std::_Rb_tree_header" }
%"struct.std::_Rb_tree_header" = type { %"struct.std::_Rb_tree_node_base", i64 }
%"struct.std::_Rb_tree_node_base" = type { i32, ptr, ptr, ptr }
%"class.std::vector.32" = type { %"struct.std::_Vector_base.33" }
%"struct.std::_Vector_base.33" = type { %"struct.std::_Vector_base<llama_logit_bias, std::allocator<llama_logit_bias>>::_Vector_impl" }
%"struct.std::_Vector_base<llama_logit_bias, std::allocator<llama_logit_bias>>::_Vector_impl" = type { %"struct.std::_Vector_base<llama_logit_bias, std::allocator<llama_logit_bias>>::_Vector_impl_data" }
%"struct.std::_Vector_base<llama_logit_bias, std::allocator<llama_logit_bias>>::_Vector_impl_data" = type { ptr, ptr, ptr }
%struct.common_params_speculative = type { %"class.std::vector", i32, i32, i32, i32, float, float, %struct.cpu_params, %struct.cpu_params, %"class.std::__cxx11::basic_string", %"class.std::__cxx11::basic_string", %"class.std::__cxx11::basic_string", %"class.std::__cxx11::basic_string" }
%struct.common_params_vocoder = type <{ %"class.std::__cxx11::basic_string", %"class.std::__cxx11::basic_string", %"class.std::__cxx11::basic_string", %"class.std::__cxx11::basic_string", i8, [7 x i8] }>
%"class.std::vector.37" = type { %"struct.std::_Vector_base.38" }
%"struct.std::_Vector_base.38" = type { %"struct.std::_Vector_base<llama_model_kv_override, std::allocator<llama_model_kv_override>>::_Vector_impl" }
%"struct.std::_Vector_base<llama_model_kv_override, std::allocator<llama_model_kv_override>>::_Vector_impl" = type { %"struct.std::_Vector_base<llama_model_kv_override, std::allocator<llama_model_kv_override>>::_Vector_impl_data" }
%"struct.std::_Vector_base<llama_model_kv_override, std::allocator<llama_model_kv_override>>::_Vector_impl_data" = type { ptr, ptr, ptr }
%"class.std::vector.42" = type { %"struct.std::_Vector_base.43" }
%"struct.std::_Vector_base.43" = type { %"struct.std::_Vector_base<common_adapter_lora_info, std::allocator<common_adapter_lora_info>>::_Vector_impl" }
%"struct.std::_Vector_base<common_adapter_lora_info, std::allocator<common_adapter_lora_info>>::_Vector_impl" = type { %"struct.std::_Vector_base<common_adapter_lora_info, std::allocator<common_adapter_lora_info>>::_Vector_impl_data" }
%"struct.std::_Vector_base<common_adapter_lora_info, std::allocator<common_adapter_lora_info>>::_Vector_impl_data" = type { ptr, ptr, ptr }
%"class.std::vector.47" = type { %"struct.std::_Vector_base.48" }
%"struct.std::_Vector_base.48" = type { %"struct.std::_Vector_base<common_control_vector_load_info, std::allocator<common_control_vector_load_info>>::_Vector_impl" }
%"struct.std::_Vector_base<common_control_vector_load_info, std::allocator<common_control_vector_load_info>>::_Vector_impl" = type { %"struct.std::_Vector_base<common_control_vector_load_info, std::allocator<common_control_vector_load_info>>::_Vector_impl_data" }
%"struct.std::_Vector_base<common_control_vector_load_info, std::allocator<common_control_vector_load_info>>::_Vector_impl_data" = type { ptr, ptr, ptr }
%"class.std::vector.24" = type { %"struct.std::_Vector_base.25" }
%"struct.std::_Vector_base.25" = type { %"struct.std::_Vector_base<int, std::allocator<int>>::_Vector_impl" }
%"struct.std::_Vector_base<int, std::allocator<int>>::_Vector_impl" = type { %"struct.std::_Vector_base<int, std::allocator<int>>::_Vector_impl_data" }
%"struct.std::_Vector_base<int, std::allocator<int>>::_Vector_impl_data" = type { ptr, ptr, ptr }
%"class.std::vector.9" = type { %"struct.std::_Vector_base.10" }
%"struct.std::_Vector_base.10" = type { %"struct.std::_Vector_base<std::__cxx11::basic_string<char>, std::allocator<std::__cxx11::basic_string<char>>>::_Vector_impl" }
%"struct.std::_Vector_base<std::__cxx11::basic_string<char>, std::allocator<std::__cxx11::basic_string<char>>>::_Vector_impl" = type { %"struct.std::_Vector_base<std::__cxx11::basic_string<char>, std::allocator<std::__cxx11::basic_string<char>>>::_Vector_impl_data" }
%"struct.std::_Vector_base<std::__cxx11::basic_string<char>, std::allocator<std::__cxx11::basic_string<char>>>::_Vector_impl_data" = type { ptr, ptr, ptr }
%struct.llama_context_params = type { i32, i32, i32, i32, i32, i32, i32, i32, i32, float, float, float, float, float, float, i32, float, ptr, ptr, i32, i32, i8, i8, i8, i8, i8, ptr, ptr }

; Function Attrs: mustprogress uwtable
define void @_Z30common_context_params_to_llamaRK13common_params(ptr dead_on_unwind noalias writable sret(%struct.llama_context_params) align 8 %0, ptr noundef nonnull align 8 dereferenceable(4833) %1) #4 {
  %3 = alloca ptr, align 8
  store ptr %1, ptr %3, align 8, !tbaa !52
  call void @llama_context_default_params(ptr dead_on_unwind writable sret(%struct.llama_context_params) align 8 %0)
  %4 = load ptr, ptr %3, align 8, !tbaa !52
  %5 = getelementptr inbounds nuw %struct.common_params, ptr %4, i32 0, i32 1
  %6 = load i32, ptr %5, align 4, !tbaa !275
  %7 = getelementptr inbounds nuw %struct.llama_context_params, ptr %0, i32 0, i32 0
  store i32 %6, ptr %7, align 8, !tbaa !276
  %8 = load ptr, ptr %3, align 8, !tbaa !52
  %9 = getelementptr inbounds nuw %struct.common_params, ptr %8, i32 0, i32 6
  %10 = load i32, ptr %9, align 8, !tbaa !278
  %11 = getelementptr inbounds nuw %struct.llama_context_params, ptr %0, i32 0, i32 3
  store i32 %10, ptr %11, align 4, !tbaa !279
  %12 = load ptr, ptr %3, align 8, !tbaa !52
  %13 = getelementptr inbounds nuw %struct.common_params, ptr %12, i32 0, i32 2
  %14 = load i32, ptr %13, align 8, !tbaa !254
  %15 = getelementptr inbounds nuw %struct.llama_context_params, ptr %0, i32 0, i32 1
  store i32 %14, ptr %15, align 4, !tbaa !280
  %16 = load ptr, ptr %3, align 8, !tbaa !52
  %17 = getelementptr inbounds nuw %struct.common_params, ptr %16, i32 0, i32 3
  %18 = load i32, ptr %17, align 4, !tbaa !281
  %19 = getelementptr inbounds nuw %struct.llama_context_params, ptr %0, i32 0, i32 2
  store i32 %18, ptr %19, align 8, !tbaa !282
  %20 = load ptr, ptr %3, align 8, !tbaa !52
  %21 = getelementptr inbounds nuw %struct.common_params, ptr %20, i32 0, i32 25
  %22 = getelementptr inbounds nuw %struct.cpu_params, ptr %21, i32 0, i32 0
  %23 = load i32, ptr %22, align 4, !tbaa !54
  %24 = getelementptr inbounds nuw %struct.llama_context_params, ptr %0, i32 0, i32 4
  store i32 %23, ptr %24, align 8, !tbaa !283
  %25 = load ptr, ptr %3, align 8, !tbaa !52
  %26 = getelementptr inbounds nuw %struct.common_params, ptr %25, i32 0, i32 26
  %27 = getelementptr inbounds nuw %struct.cpu_params, ptr %26, i32 0, i32 0
  %28 = load i32, ptr %27, align 8, !tbaa !122
  %29 = icmp eq i32 %28, -1
  br i1 %29, label %30, label %35

30:                                               ; preds = %2
  %31 = load ptr, ptr %3, align 8, !tbaa !52
  %32 = getelementptr inbounds nuw %struct.common_params, ptr %31, i32 0, i32 25
  %33 = getelementptr inbounds nuw %struct.cpu_params, ptr %32, i32 0, i32 0
  %34 = load i32, ptr %33, align 4, !tbaa !54
  br label %40

35:                                               ; preds = %2
  %36 = load ptr, ptr %3, align 8, !tbaa !52
  %37 = getelementptr inbounds nuw %struct.common_params, ptr %36, i32 0, i32 26
  %38 = getelementptr inbounds nuw %struct.cpu_params, ptr %37, i32 0, i32 0
  %39 = load i32, ptr %38, align 8, !tbaa !122
  br label %40

40:                                               ; preds = %35, %30
  %41 = phi i32 [ %34, %30 ], [ %39, %35 ]
  %42 = getelementptr inbounds nuw %struct.llama_context_params, ptr %0, i32 0, i32 5
  store i32 %41, ptr %42, align 4, !tbaa !284
  %43 = load ptr, ptr %3, align 8, !tbaa !52
  %44 = getelementptr inbounds nuw %struct.common_params, ptr %43, i32 0, i32 89
  %45 = load i8, ptr %44, align 1, !tbaa !285, !range !37, !noundef !38
  %46 = trunc i8 %45 to i1
  %47 = getelementptr inbounds nuw %struct.llama_context_params, ptr %0, i32 0, i32 21
  %48 = zext i1 %46 to i8
  store i8 %48, ptr %47, align 8, !tbaa !286
  %49 = load ptr, ptr %3, align 8, !tbaa !52
  %50 = getelementptr inbounds nuw %struct.common_params, ptr %49, i32 0, i32 104
  %51 = load i8, ptr %50, align 8, !tbaa !287, !range !37, !noundef !38
  %52 = trunc i8 %51 to i1
  %53 = getelementptr inbounds nuw %struct.llama_context_params, ptr %0, i32 0, i32 22
  %54 = zext i1 %52 to i8
  store i8 %54, ptr %53, align 1, !tbaa !288
  %55 = load ptr, ptr %3, align 8, !tbaa !52
  %56 = getelementptr inbounds nuw %struct.common_params, ptr %55, i32 0, i32 31
  %57 = load i32, ptr %56, align 4, !tbaa !289
  %58 = getelementptr inbounds nuw %struct.llama_context_params, ptr %0, i32 0, i32 6
  store i32 %57, ptr %58, align 8, !tbaa !290
  %59 = load ptr, ptr %3, align 8, !tbaa !52
  %60 = getelementptr inbounds nuw %struct.common_params, ptr %59, i32 0, i32 11
  %61 = load float, ptr %60, align 4, !tbaa !291
  %62 = getelementptr inbounds nuw %struct.llama_context_params, ptr %0, i32 0, i32 9
  store float %61, ptr %62, align 4, !tbaa !292
  %63 = load ptr, ptr %3, align 8, !tbaa !52
  %64 = getelementptr inbounds nuw %struct.common_params, ptr %63, i32 0, i32 12
  %65 = load float, ptr %64, align 8, !tbaa !293
  %66 = getelementptr inbounds nuw %struct.llama_context_params, ptr %0, i32 0, i32 10
  store float %65, ptr %66, align 8, !tbaa !294
  %67 = load ptr, ptr %3, align 8, !tbaa !52
  %68 = getelementptr inbounds nuw %struct.common_params, ptr %67, i32 0, i32 13
  %69 = load float, ptr %68, align 4, !tbaa !295
  %70 = getelementptr inbounds nuw %struct.llama_context_params, ptr %0, i32 0, i32 11
  store float %69, ptr %70, align 4, !tbaa !296
  %71 = load ptr, ptr %3, align 8, !tbaa !52
  %72 = getelementptr inbounds nuw %struct.common_params, ptr %71, i32 0, i32 14
  %73 = load float, ptr %72, align 8, !tbaa !297
  %74 = getelementptr inbounds nuw %struct.llama_context_params, ptr %0, i32 0, i32 12
  store float %73, ptr %74, align 8, !tbaa !298
  %75 = load ptr, ptr %3, align 8, !tbaa !52
  %76 = getelementptr inbounds nuw %struct.common_params, ptr %75, i32 0, i32 15
  %77 = load float, ptr %76, align 4, !tbaa !299
  %78 = getelementptr inbounds nuw %struct.llama_context_params, ptr %0, i32 0, i32 13
  store float %77, ptr %78, align 4, !tbaa !300
  %79 = load ptr, ptr %3, align 8, !tbaa !52
  %80 = getelementptr inbounds nuw %struct.common_params, ptr %79, i32 0, i32 16
  %81 = load float, ptr %80, align 8, !tbaa !301
  %82 = getelementptr inbounds nuw %struct.llama_context_params, ptr %0, i32 0, i32 14
  store float %81, ptr %82, align 8, !tbaa !302
  %83 = load ptr, ptr %3, align 8, !tbaa !52
  %84 = getelementptr inbounds nuw %struct.common_params, ptr %83, i32 0, i32 17
  %85 = load i32, ptr %84, align 4, !tbaa !303
  %86 = getelementptr inbounds nuw %struct.llama_context_params, ptr %0, i32 0, i32 15
  store i32 %85, ptr %86, align 4, !tbaa !304
  %87 = load ptr, ptr %3, align 8, !tbaa !52
  %88 = getelementptr inbounds nuw %struct.common_params, ptr %87, i32 0, i32 32
  %89 = load i32, ptr %88, align 8, !tbaa !305
  %90 = getelementptr inbounds nuw %struct.llama_context_params, ptr %0, i32 0, i32 7
  store i32 %89, ptr %90, align 4, !tbaa !306
  %91 = load ptr, ptr %3, align 8, !tbaa !52
  %92 = getelementptr inbounds nuw %struct.common_params, ptr %91, i32 0, i32 33
  %93 = load i32, ptr %92, align 4, !tbaa !307
  %94 = getelementptr inbounds nuw %struct.llama_context_params, ptr %0, i32 0, i32 8
  store i32 %93, ptr %94, align 8, !tbaa !308
  %95 = load ptr, ptr %3, align 8, !tbaa !52
  %96 = getelementptr inbounds nuw %struct.common_params, ptr %95, i32 0, i32 18
  %97 = load float, ptr %96, align 8, !tbaa !309
  %98 = getelementptr inbounds nuw %struct.llama_context_params, ptr %0, i32 0, i32 16
  store float %97, ptr %98, align 8, !tbaa !310
  %99 = load ptr, ptr %3, align 8, !tbaa !52
  %100 = getelementptr inbounds nuw %struct.common_params, ptr %99, i32 0, i32 28
  %101 = load ptr, ptr %100, align 8, !tbaa !311
  %102 = getelementptr inbounds nuw %struct.llama_context_params, ptr %0, i32 0, i32 17
  store ptr %101, ptr %102, align 8, !tbaa !312
  %103 = load ptr, ptr %3, align 8, !tbaa !52
  %104 = getelementptr inbounds nuw %struct.common_params, ptr %103, i32 0, i32 29
  %105 = load ptr, ptr %104, align 8, !tbaa !313
  %106 = getelementptr inbounds nuw %struct.llama_context_params, ptr %0, i32 0, i32 18
  store ptr %105, ptr %106, align 8, !tbaa !314
  %107 = load ptr, ptr %3, align 8, !tbaa !52
  %108 = getelementptr inbounds nuw %struct.common_params, ptr %107, i32 0, i32 95
  %109 = load i8, ptr %108, align 1, !tbaa !315, !range !37, !noundef !38
  %110 = trunc i8 %109 to i1
  %111 = xor i1 %110, true
  %112 = getelementptr inbounds nuw %struct.llama_context_params, ptr %0, i32 0, i32 23
  %113 = zext i1 %111 to i8
  store i8 %113, ptr %112, align 2, !tbaa !316
  %114 = load ptr, ptr %3, align 8, !tbaa !52
  %115 = getelementptr inbounds nuw %struct.common_params, ptr %114, i32 0, i32 85
  %116 = load i8, ptr %115, align 1, !tbaa !317, !range !37, !noundef !38
  %117 = trunc i8 %116 to i1
  %118 = getelementptr inbounds nuw %struct.llama_context_params, ptr %0, i32 0, i32 24
  %119 = zext i1 %117 to i8
  store i8 %119, ptr %118, align 1, !tbaa !318
  %120 = load ptr, ptr %3, align 8, !tbaa !52
  %121 = getelementptr inbounds nuw %struct.common_params, ptr %120, i32 0, i32 86
  %122 = load i8, ptr %121, align 2, !tbaa !319, !range !37, !noundef !38
  %123 = trunc i8 %122 to i1
  %124 = getelementptr inbounds nuw %struct.llama_context_params, ptr %0, i32 0, i32 25
  %125 = zext i1 %123 to i8
  store i8 %125, ptr %124, align 4, !tbaa !320
  %126 = load ptr, ptr %3, align 8, !tbaa !52
  %127 = getelementptr inbounds nuw %struct.common_params, ptr %126, i32 0, i32 109
  %128 = load i8, ptr %127, align 8, !tbaa !223, !range !37, !noundef !38
  %129 = trunc i8 %128 to i1
  br i1 %129, label %130, label %133

130:                                              ; preds = %40
  %131 = getelementptr inbounds nuw %struct.llama_context_params, ptr %0, i32 0, i32 22
  store i8 1, ptr %131, align 1, !tbaa !288
  %132 = getelementptr inbounds nuw %struct.llama_context_params, ptr %0, i32 0, i32 7
  store i32 4, ptr %132, align 4, !tbaa !306
  br label %133

133:                                              ; preds = %130, %40
  %134 = load ptr, ptr %3, align 8, !tbaa !52
  %135 = getelementptr inbounds nuw %struct.common_params, ptr %134, i32 0, i32 99
  %136 = load i32, ptr %135, align 4, !tbaa !321
  %137 = getelementptr inbounds nuw %struct.llama_context_params, ptr %0, i32 0, i32 19
  store i32 %136, ptr %137, align 8, !tbaa !322
  %138 = load ptr, ptr %3, align 8, !tbaa !52
  %139 = getelementptr inbounds nuw %struct.common_params, ptr %138, i32 0, i32 100
  %140 = load i32, ptr %139, align 8, !tbaa !323
  %141 = getelementptr inbounds nuw %struct.llama_context_params, ptr %0, i32 0, i32 20
  store i32 %140, ptr %141, align 4, !tbaa !324
  ret void
}