; Function Attrs: mustprogress uwtable
define void @_Z30common_context_params_to_llamaRK13common_params(ptr dead_on_unwind noalias writable sret(%struct.llama_context_params) align 8 %0, ptr noundef nonnull readonly align 8 captures(none) dereferenceable(4833) %1) local_unnamed_addr #3 {
  tail call void @llama_context_default_params(ptr dead_on_unwind writable sret(%struct.llama_context_params) align 8 %0)
  %3 = getelementptr inbounds nuw i8, ptr %1, i64 4
  %4 = load i32, ptr %3, align 4, !tbaa !378
  store i32 %4, ptr %0, align 8, !tbaa !379
  %5 = getelementptr inbounds nuw i8, ptr %1, i64 24
  %6 = load i32, ptr %5, align 8, !tbaa !381
  %7 = getelementptr inbounds nuw i8, ptr %0, i64 12
  store i32 %6, ptr %7, align 4, !tbaa !382
  %8 = getelementptr inbounds nuw i8, ptr %1, i64 8
  %9 = load i32, ptr %8, align 8, !tbaa !373
  %10 = getelementptr inbounds nuw i8, ptr %0, i64 4
  store i32 %9, ptr %10, align 4, !tbaa !383
  %11 = getelementptr inbounds nuw i8, ptr %1, i64 12
  %12 = load i32, ptr %11, align 4, !tbaa !384
  %13 = getelementptr inbounds nuw i8, ptr %0, i64 8
  store i32 %12, ptr %13, align 8, !tbaa !385
  %14 = getelementptr inbounds nuw i8, ptr %1, i64 628
  %15 = load i32, ptr %14, align 4, !tbaa !93
  %16 = getelementptr inbounds nuw i8, ptr %0, i64 16
  store i32 %15, ptr %16, align 8, !tbaa !386
  %17 = getelementptr inbounds nuw i8, ptr %1, i64 1160
  %18 = load i32, ptr %17, align 8, !tbaa !159
  %19 = icmp eq i32 %18, -1
  %20 = select i1 %19, i32 %15, i32 %18
  %21 = getelementptr inbounds nuw i8, ptr %0, i64 20
  store i32 %20, ptr %21, align 4, !tbaa !387
  %22 = getelementptr inbounds nuw i8, ptr %1, i64 4073
  %23 = load i8, ptr %22, align 1, !tbaa !388, !range !79, !noundef !80
  %24 = getelementptr inbounds nuw i8, ptr %0, i64 96
  store i8 %23, ptr %24, align 8, !tbaa !389
  %25 = getelementptr inbounds nuw i8, ptr %1, i64 4152
  %26 = load i8, ptr %25, align 8, !tbaa !390, !range !79, !noundef !80
  %27 = getelementptr inbounds nuw i8, ptr %0, i64 97
  store i8 %26, ptr %27, align 1, !tbaa !391
  %28 = getelementptr inbounds nuw i8, ptr %1, i64 1716
  %29 = load i32, ptr %28, align 4, !tbaa !392
  %30 = getelementptr inbounds nuw i8, ptr %0, i64 24
  store i32 %29, ptr %30, align 8, !tbaa !393
  %31 = getelementptr inbounds nuw i8, ptr %1, i64 44
  %32 = load float, ptr %31, align 4, !tbaa !394
  %33 = getelementptr inbounds nuw i8, ptr %0, i64 36
  store float %32, ptr %33, align 4, !tbaa !395
  %34 = getelementptr inbounds nuw i8, ptr %1, i64 48
  %35 = load float, ptr %34, align 8, !tbaa !396
  %36 = getelementptr inbounds nuw i8, ptr %0, i64 40
  store float %35, ptr %36, align 8, !tbaa !397
  %37 = getelementptr inbounds nuw i8, ptr %1, i64 52
  %38 = load float, ptr %37, align 4, !tbaa !398
  %39 = getelementptr inbounds nuw i8, ptr %0, i64 44
  store float %38, ptr %39, align 4, !tbaa !399
  %40 = getelementptr inbounds nuw i8, ptr %1, i64 56
  %41 = load float, ptr %40, align 8, !tbaa !400
  %42 = getelementptr inbounds nuw i8, ptr %0, i64 48
  store float %41, ptr %42, align 8, !tbaa !401
  %43 = getelementptr inbounds nuw i8, ptr %1, i64 60
  %44 = load float, ptr %43, align 4, !tbaa !402
  %45 = getelementptr inbounds nuw i8, ptr %0, i64 52
  store float %44, ptr %45, align 4, !tbaa !403
  %46 = getelementptr inbounds nuw i8, ptr %1, i64 64
  %47 = load float, ptr %46, align 8, !tbaa !404
  %48 = getelementptr inbounds nuw i8, ptr %0, i64 56
  store float %47, ptr %48, align 8, !tbaa !405
  %49 = getelementptr inbounds nuw i8, ptr %1, i64 68
  %50 = load i32, ptr %49, align 4, !tbaa !406
  %51 = getelementptr inbounds nuw i8, ptr %0, i64 60
  store i32 %50, ptr %51, align 4, !tbaa !407
  %52 = getelementptr inbounds nuw i8, ptr %1, i64 1720
  %53 = load i32, ptr %52, align 8, !tbaa !408
  %54 = getelementptr inbounds nuw i8, ptr %0, i64 28
  store i32 %53, ptr %54, align 4, !tbaa !409
  %55 = getelementptr inbounds nuw i8, ptr %1, i64 1724
  %56 = load i32, ptr %55, align 4, !tbaa !410
  %57 = getelementptr inbounds nuw i8, ptr %0, i64 32
  store i32 %56, ptr %57, align 8, !tbaa !411
  %58 = getelementptr inbounds nuw i8, ptr %1, i64 72
  %59 = load float, ptr %58, align 8, !tbaa !412
  %60 = getelementptr inbounds nuw i8, ptr %0, i64 64
  store float %59, ptr %60, align 8, !tbaa !413
  %61 = getelementptr inbounds nuw i8, ptr %1, i64 1696
  %62 = load ptr, ptr %61, align 8, !tbaa !414
  %63 = getelementptr inbounds nuw i8, ptr %0, i64 72
  store ptr %62, ptr %63, align 8, !tbaa !415
  %64 = getelementptr inbounds nuw i8, ptr %1, i64 1704
  %65 = load ptr, ptr %64, align 8, !tbaa !416
  %66 = getelementptr inbounds nuw i8, ptr %0, i64 80
  store ptr %65, ptr %66, align 8, !tbaa !417
  %67 = getelementptr inbounds nuw i8, ptr %1, i64 4079
  %68 = load i8, ptr %67, align 1, !tbaa !418, !range !79, !noundef !80
  %69 = xor i8 %68, 1
  %70 = getelementptr inbounds nuw i8, ptr %0, i64 98
  store i8 %69, ptr %70, align 2, !tbaa !419
  %71 = getelementptr inbounds nuw i8, ptr %1, i64 4069
  %72 = load i8, ptr %71, align 1, !tbaa !420, !range !79, !noundef !80
  %73 = getelementptr inbounds nuw i8, ptr %0, i64 99
  store i8 %72, ptr %73, align 1, !tbaa !421
  %74 = getelementptr inbounds nuw i8, ptr %1, i64 4070
  %75 = load i8, ptr %74, align 2, !tbaa !422, !range !79, !noundef !80
  %76 = getelementptr inbounds nuw i8, ptr %0, i64 100
  store i8 %75, ptr %76, align 4, !tbaa !423
  %77 = getelementptr inbounds nuw i8, ptr %1, i64 4224
  %78 = load i8, ptr %77, align 8, !tbaa !331, !range !79, !noundef !80
  %79 = trunc nuw i8 %78 to i1
  br i1 %79, label %80, label %81

80:                                               ; preds = %2
  store i8 1, ptr %27, align 1, !tbaa !391
  store i32 4, ptr %54, align 4, !tbaa !409
  br label %81

81:                                               ; preds = %80, %2
  %82 = getelementptr inbounds nuw i8, ptr %1, i64 4084
  %83 = load i32, ptr %82, align 4, !tbaa !424
  %84 = getelementptr inbounds nuw i8, ptr %0, i64 88
  store i32 %83, ptr %84, align 8, !tbaa !425
  %85 = getelementptr inbounds nuw i8, ptr %1, i64 4088
  %86 = load i32, ptr %85, align 8, !tbaa !426
  %87 = getelementptr inbounds nuw i8, ptr %0, i64 92
  store i32 %86, ptr %87, align 4, !tbaa !427
  ret void
}